target datalayout = "e-m:e-p270:32:32-p271:32:32-p272:64:64-i64:64-i128:128-f80:128-n8:16:32:64-S128"
target triple = "x86_64-pc-linux-gnu"

%struct.jv = type { i8, i8, i16, i32, %union.anon }
%union.anon = type { ptr }
%struct.jq_state = type { ptr, ptr, ptr, ptr, ptr, %struct.jv, %struct.stack, i32, i32, i32, %struct.jv, %struct.jv, i32, i32, i32, i32, i32, %struct.jv, %struct.jv, %struct.jv, ptr, ptr, ptr, ptr, ptr, ptr }
%struct.stack = type { ptr, i32, i32 }

; Function Attrs: nounwind uwtable
define dso_local void @jq_get_input_cb(ptr noundef %0, ptr noundef %1, ptr noundef %2) #0 {
  %4 = alloca ptr, align 8
  %5 = alloca ptr, align 8
  %6 = alloca ptr, align 8
  store ptr %0, ptr %4, align 8, !tbaa !4
  store ptr %1, ptr %5, align 8, !tbaa !17
  store ptr %2, ptr %6, align 8, !tbaa !17
  %7 = load ptr, ptr %4, align 8, !tbaa !4
  %8 = getelementptr inbounds nuw %struct.jq_state, ptr %7, i32 0, i32 20
  %9 = load ptr, ptr %8, align 8, !tbaa !91
  %10 = load ptr, ptr %5, align 8, !tbaa !17
  store ptr %9, ptr %10, align 8, !tbaa !17
  %11 = load ptr, ptr %4, align 8, !tbaa !4
  %12 = getelementptr inbounds nuw %struct.jq_state, ptr %11, i32 0, i32 21
  %13 = load ptr, ptr %12, align 8, !tbaa !92
  %14 = load ptr, ptr %6, align 8, !tbaa !17
  store ptr %13, ptr %14, align 8, !tbaa !17
  ret void
}